; Function Attrs: nounwind uwtable
define noalias noundef ptr @Abc_CexPermuteTwo(ptr noundef readonly captures(none) %0, ptr noundef readonly captures(none) %1, ptr noundef readonly captures(none) %2) local_unnamed_addr #10 {
  %4 = getelementptr inbounds nuw i8, ptr %0, i64 12
  %5 = load i32, ptr %4, align 4, !tbaa !8
  %6 = add i32 %5, -1
  %or.cond.i.i = icmp ult i32 %6, 15
  %spec.store.select.i.i = select i1 %or.cond.i.i, i32 16, i32 %5
  %.not.i.i = icmp eq i32 %spec.store.select.i.i, 0
  br i1 %.not.i.i, label %Vec_IntStartFull.exit, label %Vec_IntAlloc.exit.i

Vec_IntAlloc.exit.i:                              ; preds = %3
  %7 = sext i32 %spec.store.select.i.i to i64
  %8 = shl nsw i64 %7, 2
  %9 = tail call noalias ptr @malloc(i64 noundef %8) #15
  %.not.i = icmp eq ptr %9, null
  br i1 %.not.i, label %Vec_IntStartFull.exit, label %10

10:                                               ; preds = %Vec_IntAlloc.exit.i
  %11 = sext i32 %5 to i64
  %12 = shl nsw i64 %11, 2
  tail call void @llvm.memset.p0.i64(ptr nonnull align 4 %9, i8 -1, i64 %12, i1 false)
  br label %Vec_IntStartFull.exit

Vec_IntStartFull.exit:                            ; preds = %3, %Vec_IntAlloc.exit.i, %10
  %13 = phi ptr [ null, %Vec_IntAlloc.exit.i ], [ %9, %10 ], [ null, %3 ]
  %14 = getelementptr i8, ptr %1, i64 4
  %.val1519 = load i32, ptr %14, align 4, !tbaa !47
  %15 = icmp sgt i32 %.val1519, 0
  br i1 %15, label %.lr.ph, label %.critedge

.lr.ph:                                           ; preds = %Vec_IntStartFull.exit
  %16 = getelementptr i8, ptr %1, i64 8
  %.val14 = load ptr, ptr %16, align 8, !tbaa !43
  %17 = getelementptr i8, ptr %2, i64 8
  %.val = load ptr, ptr %17, align 8, !tbaa !43
  %18 = zext nneg i32 %.val1519 to i64
  br label %19

19:                                               ; preds = %.lr.ph, %19
  %indvars.iv = phi i64 [ 0, %.lr.ph ], [ %indvars.iv.next, %19 ]
  %20 = getelementptr inbounds nuw i32, ptr %.val14, i64 %indvars.iv
  %21 = load i32, ptr %20, align 4, !tbaa !12
  %22 = getelementptr inbounds nuw i32, ptr %.val, i64 %indvars.iv
  %23 = load i32, ptr %22, align 4, !tbaa !12
  %24 = sext i32 %21 to i64
  %25 = getelementptr inbounds i32, ptr %13, i64 %24
  store i32 %23, ptr %25, align 4, !tbaa !12
  %indvars.iv.next = add nuw nsw i64 %indvars.iv, 1
  %26 = icmp samesign ult i64 %indvars.iv.next, %18
  br i1 %26, label %19, label %.critedge, !llvm.loop !48

.critedge:                                        ; preds = %19, %Vec_IntStartFull.exit
  %27 = getelementptr inbounds nuw i8, ptr %0, i64 8
  %28 = load i32, ptr %27, align 4, !tbaa !3
  %29 = getelementptr inbounds nuw i8, ptr %0, i64 4
  %30 = load i32, ptr %29, align 4, !tbaa !11
  %31 = add nsw i32 %30, 1
  %32 = mul nsw i32 %31, %5
  %33 = add nsw i32 %32, %28
  %34 = ashr i32 %33, 5
  %35 = and i32 %33, 31
  %36 = icmp ne i32 %35, 0
  %37 = zext i1 %36 to i32
  %38 = add nsw i32 %34, %37
  %39 = sext i32 %38 to i64
  %40 = shl nsw i64 %39, 2
  %41 = add nsw i64 %40, 20
  %calloc.i.i = tail call ptr @calloc(i64 1, i64 %41)
  %42 = getelementptr inbounds nuw i8, ptr %calloc.i.i, i64 8
  store i32 %28, ptr %42, align 4, !tbaa !3
  %43 = getelementptr inbounds nuw i8, ptr %calloc.i.i, i64 12
  store i32 %5, ptr %43, align 4, !tbaa !8
  %44 = getelementptr inbounds nuw i8, ptr %calloc.i.i, i64 16
  store i32 %33, ptr %44, align 4, !tbaa !9
  %45 = load i32, ptr %0, align 4, !tbaa !10
  store i32 %45, ptr %calloc.i.i, align 4, !tbaa !10
  %46 = getelementptr inbounds nuw i8, ptr %calloc.i.i, i64 4
  store i32 %30, ptr %46, align 4, !tbaa !11
  %47 = getelementptr inbounds nuw i8, ptr %0, i64 16
  %48 = load i32, ptr %47, align 4, !tbaa !9
  %49 = icmp slt i32 %28, %48
  br i1 %49, label %.lr.ph.i, label %Abc_CexPermute.exit

.lr.ph.i:                                         ; preds = %.critedge
  %50 = getelementptr inbounds nuw i8, ptr %0, i64 20
  %51 = getelementptr inbounds nuw i8, ptr %calloc.i.i, i64 20
  br label %52

52:                                               ; preds = %76, %.lr.ph.i
  %.024.i = phi i32 [ %28, %.lr.ph.i ], [ %77, %76 ]
  %53 = ashr i32 %.024.i, 5
  %54 = sext i32 %53 to i64
  %55 = getelementptr inbounds i32, ptr %50, i64 %54
  %56 = load i32, ptr %55, align 4, !tbaa !12
  %57 = and i32 %.024.i, 31
  %58 = shl nuw i32 1, %57
  %59 = and i32 %58, %56
  %.not.i17 = icmp eq i32 %59, 0
  br i1 %.not.i17, label %76, label %60

60:                                               ; preds = %52
  %61 = sub nsw i32 %.024.i, %28
  %.fr.i = freeze i32 %61
  %62 = srem i32 %.fr.i, %5
  %63 = sext i32 %62 to i64
  %64 = getelementptr inbounds i32, ptr %13, i64 %63
  %65 = load i32, ptr %64, align 4, !tbaa !12
  %66 = add i32 %.fr.i, %28
  %67 = sub i32 %66, %62
  %68 = add nsw i32 %67, %65
  %69 = and i32 %68, 31
  %70 = shl nuw i32 1, %69
  %71 = ashr i32 %68, 5
  %72 = sext i32 %71 to i64
  %73 = getelementptr inbounds i32, ptr %51, i64 %72
  %74 = load i32, ptr %73, align 4, !tbaa !12
  %75 = or i32 %70, %74
  store i32 %75, ptr %73, align 4, !tbaa !12
  br label %76

76:                                               ; preds = %60, %52
  %77 = add nsw i32 %.024.i, 1
  %exitcond.not.i = icmp eq i32 %77, %48
  br i1 %exitcond.not.i, label %Abc_CexPermute.exit, label %52, !llvm.loop !46

Abc_CexPermute.exit:                              ; preds = %76, %.critedge
  %.not.i18 = icmp eq ptr %13, null
  br i1 %.not.i18, label %Vec_IntFree.exit, label %78

78:                                               ; preds = %Abc_CexPermute.exit
  tail call void @free(ptr noundef nonnull %13) #16
  br label %Vec_IntFree.exit

Vec_IntFree.exit:                                 ; preds = %Abc_CexPermute.exit, %78
  ret ptr %calloc.i.i
}